((lp0
(lp1
ccopy_reg
_reconstructor
p2
(cta
Panel
p3
c__builtin__
object
p4
Ntp5
Rp6
(dp7
S'c'
p8
I0
sS'area'
p9
NsS'marked'
p10
I00
sS'state'
p11
I0
sS't'
p12
I0
sS'canChain'
p13
I00
sbag2
(g3
g4
Ntp14
Rp15
(dp16
g8
I0
sg9
Nsg10
I00
sg11
I0
sg12
I0
sg13
I00
sbag2
(g3
g4
Ntp17
Rp18
(dp19
g8
I0
sg9
Nsg10
I00
sg11
I0
sg12
I0
sg13
I00
sbag2
(g3
g4
Ntp20
Rp21
(dp22
g8
I0
sg9
Nsg10
I00
sg11
I0
sg12
I0
sg13
I00
sbag2
(g3
g4
Ntp23
Rp24
(dp25
g8
I0
sg9
Nsg10
I00
sg11
I0
sg12
I0
sg13
I00
sbag2
(g3
g4
Ntp26
Rp27
(dp28
g8
I0
sg9
Nsg10
I00
sg11
I0
sg12
I0
sg13
I00
sbaa(lp29
g2
(g3
g4
Ntp30
Rp31
(dp32
g8
I2
sg9
Nsg10
I00
sg11
I0
sg12
I0
sg13
I00
sbag2
(g3
g4
Ntp33
Rp34
(dp35
g8
I1
sg9
Nsg10
I00
sg11
I0
sg12
I0
sg13
I00
sbag2
(g3
g4
Ntp36
Rp37
(dp38
g8
I3
sg9
Nsg10
I00
sg11
I0
sg12
I0
sg13
I00
sbag2
(g3
g4
Ntp39
Rp40
(dp41
g8
I2
sg9
Nsg10
I00
sg11
I0
sg12
I0
sg13
I00
sbag2
(g3
g4
Ntp42
Rp43
(dp44
g8
I3
sg9
Nsg10
I00
sg11
I0
sg12
I0
sg13
I00
sbag2
(g3
g4
Ntp45
Rp46
(dp47
g8
I4
sg9
Nsg10
I00
sg11
I0
sg12
I0
sg13
I00
sbaa(lp48
g2
(g3
g4
Ntp49
Rp50
(dp51
g8
I2
sg9
Nsg10
I00
sg11
I0
sg12
I0
sg13
I00
sbag2
(g3
g4
Ntp52
Rp53
(dp54
g8
I4
sg9
Nsg10
I00
sg11
I0
sg12
I0
sg13
I00
sbag2
(g3
g4
Ntp55
Rp56
(dp57
g8
I2
sg9
Nsg10
I00
sg11
I0
sg12
I0
sg13
I00
sbag2
(g3
g4
Ntp58
Rp59
(dp60
g8
I3
sg9
Nsg10
I00
sg11
I0
sg12
I0
sg13
I00
sbag2
(g3
g4
Ntp61
Rp62
(dp63
g8
I1
sg9
Nsg10
I00
sg11
I0
sg12
I0
sg13
I00
sbag2
(g3
g4
Ntp64
Rp65
(dp66
g8
I2
sg9
Nsg10
I00
sg11
I0
sg12
I0
sg13
I00
sbaa(lp67
g2
(g3
g4
Ntp68
Rp69
(dp70
g8
I1
sg9
Nsg10
I00
sg11
I0
sg12
I0
sg13
I00
sbag2
(g3
g4
Ntp71
Rp72
(dp73
g8
I2
sg9
Nsg10
I00
sg11
I0
sg12
I0
sg13
I00
sbag2
(g3
g4
Ntp74
Rp75
(dp76
g8
I4
sg9
Nsg10
I00
sg11
I0
sg12
I0
sg13
I00
sbag2
(g3
g4
Ntp77
Rp78
(dp79
g8
I3
sg9
Nsg10
I00
sg11
I0
sg12
I0
sg13
I00
sbag2
(g3
g4
Ntp80
Rp81
(dp82
g8
I2
sg9
Nsg10
I00
sg11
I0
sg12
I0
sg13
I00
sbag2
(g3
g4
Ntp83
Rp84
(dp85
g8
I3
sg9
Nsg10
I00
sg11
I0
sg12
I0
sg13
I00
sbaa(lp86
g2
(g3
g4
Ntp87
Rp88
(dp89
g8
I3
sg9
Nsg10
I00
sg11
I0
sg12
I0
sg13
I00
sbag2
(g3
g4
Ntp90
Rp91
(dp92
g8
I2
sg9
Nsg10
I00
sg11
I0
sg12
I0
sg13
I00
sbag2
(g3
g4
Ntp93
Rp94
(dp95
g8
I1
sg9
Nsg10
I00
sg11
I0
sg12
I0
sg13
I00
sbag2
(g3
g4
Ntp96
Rp97
(dp98
g8
I4
sg9
Nsg10
I00
sg11
I0
sg12
I0
sg13
I00
sbag2
(g3
g4
Ntp99
Rp100
(dp101
g8
I2
sg9
Nsg10
I00
sg11
I0
sg12
I0
sg13
I00
sbag2
(g3
g4
Ntp102
Rp103
(dp104
g8
I1
sg9
Nsg10
I00
sg11
I0
sg12
I0
sg13
I00
sbaa(lp105
g2
(g3
g4
Ntp106
Rp107
(dp108
g8
I2
sg9
Nsg10
I00
sg11
I0
sg12
I0
sg13
I00
sbag2
(g3
g4
Ntp109
Rp110
(dp111
g8
I1
sg9
Nsg10
I00
sg11
I0
sg12
I0
sg13
I00
sbag2
(g3
g4
Ntp112
Rp113
(dp114
g8
I2
sg9
Nsg10
I00
sg11
I0
sg12
I0
sg13
I00
sbag2
(g3
g4
Ntp115
Rp116
(dp117
g8
I1
sg9
Nsg10
I00
sg11
I0
sg12
I0
sg13
I00
sbag2
(g3
g4
Ntp118
Rp119
(dp120
g8
I4
sg9
Nsg10
I00
sg11
I0
sg12
I0
sg13
I00
sbag2
(g3
g4
Ntp121
Rp122
(dp123
g8
I2
sg9
Nsg10
I00
sg11
I0
sg12
I0
sg13
I00
sbaa(lp124
g2
(g3
g4
Ntp125
Rp126
(dp127
g8
I1
sg9
Nsg10
I00
sg11
I0
sg12
I0
sg13
I00
sbag2
(g3
g4
Ntp128
Rp129
(dp130
g8
I4
sg9
Nsg10
I00
sg11
I0
sg12
I0
sg13
I00
sbag2
(g3
g4
Ntp131
Rp132
(dp133
g8
I2
sg9
Nsg10
I00
sg11
I0
sg12
I0
sg13
I00
sbag2
(g3
g4
Ntp134
Rp135
(dp136
g8
I1
sg9
Nsg10
I00
sg11
I0
sg12
I0
sg13
I00
sbag2
(g3
g4
Ntp137
Rp138
(dp139
g8
I3
sg9
Nsg10
I00
sg11
I0
sg12
I0
sg13
I00
sbag2
(g3
g4
Ntp140
Rp141
(dp142
g8
I4
sg9
Nsg10
I00
sg11
I0
sg12
I0
sg13
I00
sbaa(lp143
g2
(g3
g4
Ntp144
Rp145
(dp146
g8
I4
sg9
Nsg10
I00
sg11
I0
sg12
I0
sg13
I00
sbag2
(g3
g4
Ntp147
Rp148
(dp149
g8
I3
sg9
Nsg10
I00
sg11
I0
sg12
I0
sg13
I00
sbag2
(g3
g4
Ntp150
Rp151
(dp152
g8
I4
sg9
Nsg10
I00
sg11
I0
sg12
I0
sg13
I00
sbag2
(g3
g4
Ntp153
Rp154
(dp155
g8
I3
sg9
Nsg10
I00
sg11
I0
sg12
I0
sg13
I00
sbag2
(g3
g4
Ntp156
Rp157
(dp158
g8
I1
sg9
Nsg10
I00
sg11
I0
sg12
I0
sg13
I00
sbag2
(g3
g4
Ntp159
Rp160
(dp161
g8
I4
sg9
Nsg10
I00
sg11
I0
sg12
I0
sg13
I00
sbaa(lp162
g2
(g3
g4
Ntp163
Rp164
(dp165
g8
I3
sg9
Nsg10
I00
sg11
I0
sg12
I0
sg13
I00
sbag2
(g3
g4
Ntp166
Rp167
(dp168
g8
I1
sg9
Nsg10
I00
sg11
I0
sg12
I0
sg13
I00
sbag2
(g3
g4
Ntp169
Rp170
(dp171
g8
I3
sg9
Nsg10
I00
sg11
I0
sg12
I0
sg13
I00
sbag2
(g3
g4
Ntp172
Rp173
(dp174
g8
I2
sg9
Nsg10
I00
sg11
I0
sg12
I0
sg13
I00
sbag2
(g3
g4
Ntp175
Rp176
(dp177
g8
I4
sg9
Nsg10
I00
sg11
I0
sg12
I0
sg13
I00
sbag2
(g3
g4
Ntp178
Rp179
(dp180
g8
I1
sg9
Nsg10
I00
sg11
I0
sg12
I0
sg13
I00
sbaa(lp181
g2
(g3
g4
Ntp182
Rp183
(dp184
g8
I2
sg9
Nsg10
I00
sg11
I0
sg12
I0
sg13
I00
sbag2
(g3
g4
Ntp185
Rp186
(dp187
g8
I4
sg9
Nsg10
I00
sg11
I0
sg12
I0
sg13
I00
sbag2
(g3
g4
Ntp188
Rp189
(dp190
g8
I1
sg9
Nsg10
I00
sg11
I0
sg12
I0
sg13
I00
sbag2
(g3
g4
Ntp191
Rp192
(dp193
g8
I4
sg9
Nsg10
I00
sg11
I0
sg12
I0
sg13
I00
sbag2
(g3
g4
Ntp194
Rp195
(dp196
g8
I3
sg9
Nsg10
I00
sg11
I0
sg12
I0
sg13
I00
sbag2
(g3
g4
Ntp197
Rp198
(dp199
g8
I2
sg9
Nsg10
I00
sg11
I0
sg12
I0
sg13
I00
sbaa(lp200
g2
(g3
g4
Ntp201
Rp202
(dp203
g8
I2
sg9
Nsg10
I00
sg11
I0
sg12
I0
sg13
I00
sbag2
(g3
g4
Ntp204
Rp205
(dp206
g8
I3
sg9
Nsg10
I00
sg11
I0
sg12
I0
sg13
I00
sbag2
(g3
g4
Ntp207
Rp208
(dp209
g8
I1
sg9
Nsg10
I00
sg11
I0
sg12
I0
sg13
I00
sbag2
(g3
g4
Ntp210
Rp211
(dp212
g8
I3
sg9
Nsg10
I00
sg11
I0
sg12
I0
sg13
I00
sbag2
(g3
g4
Ntp213
Rp214
(dp215
g8
I1
sg9
Nsg10
I00
sg11
I0
sg12
I0
sg13
I00
sbag2
(g3
g4
Ntp216
Rp217
(dp218
g8
I4
sg9
Nsg10
I00
sg11
I0
sg12
I0
sg13
I00
sbaa(lp219
g2
(g3
g4
Ntp220
Rp221
(dp222
g8
I3
sg9
Nsg10
I00
sg11
I0
sg12
I0
sg13
I00
sbag2
(g3
g4
Ntp223
Rp224
(dp225
g8
I2
sg9
Nsg10
I00
sg11
I0
sg12
I0
sg13
I00
sbag2
(g3
g4
Ntp226
Rp227
(dp228
g8
I3
sg9
Nsg10
I00
sg11
I0
sg12
I0
sg13
I00
sbag2
(g3
g4
Ntp229
Rp230
(dp231
g8
I2
sg9
Nsg10
I00
sg11
I0
sg12
I0
sg13
I00
sbag2
(g3
g4
Ntp232
Rp233
(dp234
g8
I1
sg9
Nsg10
I00
sg11
I0
sg12
I0
sg13
I00
sbag2
(g3
g4
Ntp235
Rp236
(dp237
g8
I4
sg9
Nsg10
I00
sg11
I0
sg12
I0
sg13
I00
sbaaI0
I0
I0
tp238
.