(ita
PlayArea
p0
(dp1
S'vars'
p2

p2
(cta
Panel
p3
c__builtin__
object
p4
Ntp5
Rp6
(dp7
S'state'
p8
I0
sS'_c'
p9
I0
sS't'
p10
I0
sS'marked'
p11
I00
sS'canChain'
p12
I00
sbag2
(g3
g4
Ntp13
Rp14
(dp15
g8
I0
sg9
I0
sg10
I0
sg11
I00
sg12
I00
sbag2
(g3
g4
Ntp16
Rp17
(dp18
g8
I0
sg9
I0
sg10
I0
sg11
I00
sg12
I00
sbag2
(g3
g4
Ntp19
Rp20
(dp21
g8
I0
sg9
I0
sg10
I0
sg11
I00
sg12
I00
sbag2
(g3
g4
Ntp22
Rp23
(dp24
g8
I0
sg9
I0
sg10
I0
sg11
I00
sg12
I00
sbag2
(g3
g4
Ntp25
Rp26
(dp27
g8
I0
sg9
I0
sg10
I0
sg11
I00
sg12
I00
sbaa(lp28
g2
(g3
g4
Ntp29
Rp30
(dp31
g8
I0
sg9
I1
sg10
I0
sg11
I00
sg12
I00
sbag2
(g3
g4
Ntp32
Rp33
(dp34
g8
I0
sg9
I3
sg10
I0
sg11
I00
sg12
I00
sbag2
(g3
g4
Ntp35
Rp36
(dp37
g8
I0
sg9
I5
sg10
I0
sg11
I00
sg12
I00
sbag2
(g3
g4
Ntp38
Rp39
(dp40
g8
I0
sg9
I1
sg10
I0
sg11
I00
sg12
I00
sbag2
(g3
g4
Ntp41
Rp42
(dp43
g8
I0
sg9
I2
sg10
I0
sg11
I00
sg12
I00
sbag2
(g3
g4
Ntp44
Rp45
(dp46
g8
I0
sg9
I5
sg10
I0
sg11
I00
sg12
I00
sbaa(lp47
g2
(g3
g4
Ntp48
Rp49
(dp50
g8
I0
sg9
I3
sg10
I0
sg11
I00
sg12
I00
sbag2
(g3
g4
Ntp51
Rp52
(dp53
g8
I0
sg9
I2
sg10
I0
sg11
I00
sg12
I00
sbag2
(g3
g4
Ntp54
Rp55
(dp56
g8
I0
sg9
I1
sg10
I0
sg11
I00
sg12
I00
sbag2
(g3
g4
Ntp57
Rp58
(dp59
g8
I0
sg9
I2
sg10
I0
sg11
I00
sg12
I00
sbag2
(g3
g4
Ntp60
Rp61
(dp62
g8
I0
sg9
I1
sg10
I0
sg11
I00
sg12
I00
sbag2
(g3
g4
Ntp63
Rp64
(dp65
g8
I0
sg9
I3
sg10
I0
sg11
I00
sg12
I00
sbaa(lp66
g2
(g3
g4
Ntp67
Rp68
(dp69
g8
I0
sg9
I2
sg10
I0
sg11
I00
sg12
I00
sbag2
(g3
g4
Ntp70
Rp71
(dp72
g8
I0
sg9
I5
sg10
I0
sg11
I00
sg12
I00
sbag2
(g3
g4
Ntp73
Rp74
(dp75
g8
I0
sg9
I1
sg10
I0
sg11
I00
sg12
I00
sbag2
(g3
g4
Ntp76
Rp77
(dp78
g8
I0
sg9
I2
sg10
I0
sg11
I00
sg12
I00
sbag2
(g3
g4
Ntp79
Rp80
(dp81
g8
I0
sg9
I5
sg10
I0
sg11
I00
sg12
I00
sbag2
(g3
g4
Ntp82
Rp83
(dp84
g8
I0
sg9
I1
sg10
I0
sg11
I00
sg12
I00
sbaa(lp85
g2
(g3
g4
Ntp86
Rp87
(dp88
g8
I0
sg9
I4
sg10
I0
sg11
I00
sg12
I00
sbag2
(g3
g4
Ntp89
Rp90
(dp91
g8
I0
sg9
I3
sg10
I0
sg11
I00
sg12
I00
sbag2
(g3
g4
Ntp92
Rp93
(dp94
g8
I0
sg9
I2
sg10
I0
sg11
I00
sg12
I00
sbag2
(g3
g4
Ntp95
Rp96
(dp97
g8
I0
sg9
I1
sg10
I0
sg11
I00
sg12
I00
sbag2
(g3
g4
Ntp98
Rp99
(dp100
g8
I0
sg9
I2
sg10
I0
sg11
I00
sg12
I00
sbag2
(g3
g4
Ntp101
Rp102
(dp103
g8
I0
sg9
I4
sg10
I0
sg11
I00
sg12
I00
sbaa(lp104
g2
(g3
g4
Ntp105
Rp106
(dp107
g8
I0
sg9
I5
sg10
I0
sg11
I00
sg12
I00
sbag2
(g3
g4
Ntp108
Rp109
(dp110
g8
I0
sg9
I3
sg10
I0
sg11
I00
sg12
I00
sbag2
(g3
g4
Ntp111
Rp112
(dp113
g8
I0
sg9
I5
sg10
I0
sg11
I00
sg12
I00
sbag2
(g3
g4
Ntp114
Rp115
(dp116
g8
I0
sg9
I4
sg10
I0
sg11
I00
sg12
I00
sbag2
(g3
g4
Ntp117
Rp118
(dp119
g8
I0
sg9
I2
sg10
I0
sg11
I00
sg12
I00
sbag2
(g3
g4
Ntp120
Rp121
(dp122
g8
I0
sg9
I3
sg10
I0
sg11
I00
sg12
I00
sbaa(lp123
g2
(g3
g4
Ntp124
Rp125
(dp126
g8
I0
sg9
I2
sg10
I0
sg11
I00
sg12
I00
sbag2
(g3
g4
Ntp127
Rp128
(dp129
g8
I0
sg9
I5
sg10
I0
sg11
I00
sg12
I00
sbag2
(g3
g4
Ntp130
Rp131
(dp132
g8
I0
sg9
I4
sg10
I0
sg11
I00
sg12
I00
sbag2
(g3
g4
Ntp133
Rp134
(dp135
g8
I0
sg9
I5
sg10
I0
sg11
I00
sg12
I00
sbag2
(g3
g4
Ntp136
Rp137
(dp138
g8
I0
sg9
I3
sg10
I0
sg11
I00
sg12
I00
sbag2
(g3
g4
Ntp139
Rp140
(dp141
g8
I0
sg9
I1
sg10
I0
sg11
I00
sg12
I00
sbaa(lp142
g2
(g3
g4
Ntp143
Rp144
(dp145
g8
I0
sg9
I4
sg10
I0
sg11
I00
sg12
I00
sbag2
(g3
g4
Ntp146
Rp147
(dp148
g8
I0
sg9
I5
sg10
I0
sg11
I00
sg12
I00
sbag2
(g3
g4
Ntp149
Rp150
(dp151
g8
I0
sg9
I3
sg10
I0
sg11
I00
sg12
I00
sbag2
(g3
g4
Ntp152
Rp153
(dp154
g8
I0
sg9
I5
sg10
I0
sg11
I00
sg12
I00
sbag2
(g3
g4
Ntp155
Rp156
(dp157
g8
I0
sg9
I4
sg10
I0
sg11
I00
sg12
I00
sbag2
(g3
g4
Ntp158
Rp159
(dp160
g8
I0
sg9
I5
sg10
I0
sg11
I00
sg12
I00
sbaa(lp161
g2
(g3
g4
Ntp162
Rp163
(dp164
g8
I0
sg9
I3
sg10
I0
sg11
I00
sg12
I00
sbag2
(g3
g4
Ntp165
Rp166
(dp167
g8
I0
sg9
I1
sg10
I0
sg11
I00
sg12
I00
sbag2
(g3
g4
Ntp168
Rp169
(dp170
g8
I0
sg9
I5
sg10
I0
sg11
I00
sg12
I00
sbag2
(g3
g4
Ntp171
Rp172
(dp173
g8
I0
sg9
I2
sg10
I0
sg11
I00
sg12
I00
sbag2
(g3
g4
Ntp174
Rp175
(dp176
g8
I0
sg9
I1
sg10
I0
sg11
I00
sg12
I00
sbag2
(g3
g4
Ntp177
Rp178
(dp179
g8
I0
sg9
I2
sg10
I0
sg11
I00
sg12
I00
sbaa(lp180
g2
(g3
g4
Ntp181
Rp182
(dp183
g8
I0
sg9
I3
sg10
I0
sg11
I00
sg12
I00
sbag2
(g3
g4
Ntp184
Rp185
(dp186
g8
I0
sg9
I2
sg10
I0
sg11
I00
sg12
I00
sbag2
(g3
g4
Ntp187
Rp188
(dp189
g8
I0
sg9
I1
sg10
I0
sg11
I00
sg12
I00
sbag2
(g3
g4
Ntp190
Rp191
(dp192
g8
I0
sg9
I2
sg10
I0
sg11
I00
sg12
I00
sbag2
(g3
g4
Ntp193
Rp194
(dp195
g8
I0
sg9
I3
sg10
I0
sg11
I00
sg12
I00
sbag2
(g3
g4
Ntp196
Rp197
(dp198
g8
I0
sg9
I1
sg10
I0
sg11
I00
sg12
I00
sbaa(lp199
g2
(g3
g4
Ntp200
Rp201
(dp202
g8
I0
sg9
I5
sg10
I0
sg11
I00
sg12
I00
sbag2
(g3
g4
Ntp203
Rp204
(dp205
g8
I0
sg9
I3
sg10
I0
sg11
I00
sg12
I00
sbag2
(g3
g4
Ntp206
Rp207
(dp208
g8
I0
sg9
I2
sg10
I0
sg11
I00
sg12
I00
sbag2
(g3
g4
Ntp209
Rp210
(dp211
g8
I0
sg9
I4
sg10
I0
sg11
I00
sg12
I00
sbag2
(g3
g4
Ntp212
Rp213
(dp214
g8
I0
sg9
I2
sg10
I0
sg11
I00
sg12
I00
sbag2
(g3
g4
Ntp215
Rp216
(dp217
g8
I0
sg9
I3
sg10
I0
sg11
I00
sg12
I00
sbaa(lp218
g2
(g3
g4
Ntp219
Rp220
(dp221
g8
I0
sg9
I4
sg10
I0
sg11
I00
sg12
I00
sbag2
(g3
g4
Ntp222
Rp223
(dp224
g8
I0
sg9
I3
sg10
I0
sg11
I00
sg12
I00
sbag2
(g3
g4
Ntp225
Rp226
(dp227
g8
I0
sg9
I2
sg10
I0
sg11
I00
sg12
I00
sbag2
(g3
g4
Ntp228
Rp229
(dp230
g8
I0
sg9
I1
sg10
I0
sg11
I00
sg12
I00
sbag2
(g3
g4
Ntp231
Rp232
(dp233
g8
I0
sg9
I5
sg10
I0
sg11
I00
sg12
I00
sbag2
(g3
g4
Ntp234
Rp235
(dp236
g8
I0
sg9
I2
sg10
I0
sg11
I00
sg12
I00
sbaaI0
I0
I0
tp237
.